Certificate:
    Data:
        Version: 3 (0x2)
        Serial Number:
            92:a9:2d:ed:6b:13:49:b3
    Signature Algorithm: sha1WithRSAEncryption
        Issuer: C=DE, ST=Baden-W\xC3\x83\xC2\xBCrttemberg, O=websrv, CN=websrv/emailAddress=admin@websrv
        Validity
            Not Before: Aug  7 19:48:27 2014 GMT
            Not After : Aug  7 19:48:27 2015 GMT
        Subject: C=DE, ST=Baden-W\xC3\x83\xC2\xBCrttemberg, L=Mannheim, O=webrct, OU=webrtc, CN=webrtc/emailAddress=admin@webrtc
        Subject Public Key Info:
            Public Key Algorithm: rsaEncryption
                Public-Key: (2048 bit)
                Modulus:
                    00:f2:10:ba:79:5d:55:42:fa:cd:0b:87:d5:39:1c:
                    27:4b:99:bb:20:e0:02:8d:1f:f5:f6:a1:35:12:18:
                    41:ed:a2:b0:78:b9:02:31:1b:07:6b:15:00:c6:8a:
                    c5:cb:07:83:dd:da:e2:7c:13:00:3a:b9:38:19:01:
                    a5:de:d0:f1:23:54:21:a9:26:a3:68:b7:f6:4b:89:
                    c7:7e:d2:9a:78:43:68:a9:25:11:94:bc:34:aa:fb:
                    19:47:e5:25:da:72:36:91:39:57:89:48:18:08:43:
                    fd:e7:91:7e:ef:06:6d:0b:c8:c1:a5:e6:34:96:cf:
                    2c:a1:3f:d6:90:c1:c9:50:36:63:47:da:ac:56:d0:
                    e8:23:8e:be:c1:2e:c7:ff:50:ee:ca:28:bd:64:87:
                    c6:f6:cc:c5:04:94:82:f3:1b:62:41:d4:ad:8b:03:
                    bc:0e:f4:58:9a:35:ee:ac:06:dc:e2:89:f5:00:3d:
                    9e:90:06:23:66:d6:e1:d0:19:f3:92:ac:01:6c:0d:
                    6b:4a:3b:eb:5d:ae:a7:a6:e8:94:78:13:73:2b:91:
                    ad:40:c7:a7:3b:e9:de:30:bd:ae:ff:78:f4:6d:b9:
                    b4:cf:ed:9d:65:85:42:22:2e:b6:ba:c9:9e:14:f1:
                    6e:d3:46:bf:e6:93:d6:23:49:1c:34:2a:73:10:5b:
                    97:ed
                Exponent: 65537 (0x10001)
        X509v3 extensions:
            X509v3 Basic Constraints: 
                CA:FALSE
            Netscape Comment: 
                OpenSSL Generated Certificate
            X509v3 Subject Key Identifier: 
                69:2E:E6:26:09:97:EF:FF:67:5A:91:71:66:79:09:46:03:72:C8:E4
            X509v3 Authority Key Identifier: 
                keyid:A5:1A:33:6A:B3:5D:5B:7C:03:D1:18:69:19:A6:33:62:F4:86:EE:91

    Signature Algorithm: sha1WithRSAEncryption
         93:23:ea:9b:8c:89:80:46:c7:b5:63:7a:07:55:63:2a:4c:65:
         cf:13:39:b5:6d:98:1d:00:b4:8a:e7:b3:d0:41:bb:85:8b:49:
         3a:7c:4a:f1:d6:bb:0d:16:f8:f9:e2:c3:ac:af:90:74:22:89:
         59:b9:0b:55:67:f6:b4:81:d2:cb:e4:40:46:f1:3b:cb:35:50:
         5f:88:02:0b:10:ed:f5:1f:71:71:61:7b:17:0e:21:05:d8:e5:
         a3:57:a2:38:1c:6a:7c:85:7f:45:39:98:73:1c:08:62:63:ba:
         df:db:4c:00:cf:3c:b3:61:aa:aa:2e:a1:34:c2:f6:a6:ea:62:
         7b:d4:28:5e:5b:d0:d6:3b:8b:c4:0a:10:d1:2e:2a:dd:36:23:
         18:1f:fe:7e:59:7a:ef:15:d0:1b:84:c7:44:f4:6a:ba:fa:8d:
         7f:51:6b:54:0d:9a:ae:3d:05:b8:8e:e5:d8:2f:09:84:5b:1e:
         67:d6:43:26:b1:be:bf:76:c0:98:cc:66:a6:db:1e:3c:5f:fd:
         d0:10:cc:11:fc:78:dd:b8:48:99:d4:5d:62:88:72:21:dd:ab:
         2c:bd:90:6f:d3:dc:3c:fe:fd:20:52:ac:1d:c9:30:35:69:c5:
         53:07:8b:e8:00:14:25:df:18:ae:2b:34:54:92:55:b3:82:65:
         a9:52:79:79
-----BEGIN CERTIFICATE-----
MIID+TCCAuGgAwIBAgIJAJKpLe1rE0mzMA0GCSqGSIb3DQEBBQUAMGsxCzAJBgNV
BAYTAkRFMR0wGwYDVQQIDBRCYWRlbi1Xw4PCvHJ0dGVtYmVyZzEPMA0GA1UECgwG
d2Vic3J2MQ8wDQYDVQQDDAZ3ZWJzcnYxGzAZBgkqhkiG9w0BCQEWDGFkbWluQHdl
YnNydjAeFw0xNDA4MDcxOTQ4MjdaFw0xNTA4MDcxOTQ4MjdaMIGPMQswCQYDVQQG
EwJERTEdMBsGA1UECAwUQmFkZW4tV8ODwrxydHRlbWJlcmcxETAPBgNVBAcMCE1h
bm5oZWltMQ8wDQYDVQQKDAZ3ZWJyY3QxDzANBgNVBAsMBndlYnJ0YzEPMA0GA1UE
AwwGd2VicnRjMRswGQYJKoZIhvcNAQkBFgxhZG1pbkB3ZWJydGMwggEiMA0GCSqG
SIb3DQEBAQUAA4IBDwAwggEKAoIBAQDyELp5XVVC+s0Lh9U5HCdLmbsg4AKNH/X2
oTUSGEHtorB4uQIxGwdrFQDGisXLB4Pd2uJ8EwA6uTgZAaXe0PEjVCGpJqNot/ZL
icd+0pp4Q2ipJRGUvDSq+xlH5SXacjaROVeJSBgIQ/3nkX7vBm0LyMGl5jSWzyyh
P9aQwclQNmNH2qxW0Ogjjr7BLsf/UO7KKL1kh8b2zMUElILzG2JB1K2LA7wO9Fia
Ne6sBtziifUAPZ6QBiNm1uHQGfOSrAFsDWtKO+tdrqem6JR4E3Mrka1Ax6c76d4w
va7/ePRtubTP7Z1lhUIiLra6yZ4U8W7TRr/mk9YjSRw0KnMQW5ftAgMBAAGjezB5
MAkGA1UdEwQCMAAwLAYJYIZIAYb4QgENBB8WHU9wZW5TU0wgR2VuZXJhdGVkIENl
cnRpZmljYXRlMB0GA1UdDgQWBBRpLuYmCZfv/2dakXFmeQlGA3LI5DAfBgNVHSME
GDAWgBSlGjNqs11bfAPRGGkZpjNi9IbukTANBgkqhkiG9w0BAQUFAAOCAQEAkyPq
m4yJgEbHtWN6B1VjKkxlzxM5tW2YHQC0iuez0EG7hYtJOnxK8da7DRb4+eLDrK+Q
dCKJWbkLVWf2tIHSy+RARvE7yzVQX4gCCxDt9R9xcWF7Fw4hBdjlo1eiOBxqfIV/
RTmYcxwIYmO639tMAM88s2Gqqi6hNML2pupie9QoXlvQ1juLxAoQ0S4q3TYjGB/+
fll67xXQG4THRPRquvqNf1FrVA2arj0FuI7l2C8JhFseZ9ZDJrG+v3bAmMxmptse
PF/90BDMEfx43bhImdRdYohyId2rLL2Qb9PcPP79IFKsHckwNWnFUweL6AAUJd8Y
ris0VJJVs4JlqVJ5eQ==
-----END CERTIFICATE-----
